; Function Attrs: mustprogress nounwind uwtable
define hidden noundef zeroext i1 @_ZN26ShenandoahBarrierC2Support16is_gc_state_loadEP4Node(ptr noundef %0) local_unnamed_addr #0 align 2 {
  %2 = load i8, ptr @UseShenandoahGC, align 1
  %3 = trunc i8 %2 to i1
  br i1 %3, label %4, label %41

4:                                                ; preds = %1
  %5 = load ptr, ptr %0, align 8
  %6 = load ptr, ptr %5, align 8
  %7 = tail call noundef i32 %6(ptr noundef nonnull align 8 dereferenceable(52) %0) #10
  %.not = icmp eq i32 %7, 187
  br i1 %.not, label %12, label %8

8:                                                ; preds = %4
  %9 = load ptr, ptr %0, align 8
  %10 = load ptr, ptr %9, align 8
  %11 = tail call noundef i32 %10(ptr noundef nonnull align 8 dereferenceable(52) %0) #10
  %.not9 = icmp eq i32 %11, 188
  br i1 %.not9, label %12, label %41

12:                                               ; preds = %8, %4
  %13 = getelementptr inbounds i8, ptr %0, i64 8
  %14 = load ptr, ptr %13, align 8
  %15 = getelementptr inbounds i8, ptr %14, i64 16
  %16 = load ptr, ptr %15, align 8
  %17 = getelementptr inbounds i8, ptr %16, i64 44
  %18 = load i32, ptr %17, align 4
  %19 = and i32 %18, 1023
  %20 = icmp eq i32 %19, 512
  br i1 %20, label %21, label %41

21:                                               ; preds = %12
  %22 = getelementptr inbounds i8, ptr %16, i64 8
  %23 = load ptr, ptr %22, align 8
  %24 = getelementptr inbounds i8, ptr %23, i64 16
  %25 = load ptr, ptr %24, align 8
  %26 = getelementptr inbounds i8, ptr %23, i64 24
  %27 = load ptr, ptr %26, align 8
  %28 = load ptr, ptr %25, align 8
  %29 = load ptr, ptr %28, align 8
  %30 = tail call noundef i32 %29(ptr noundef nonnull align 8 dereferenceable(52) %25) #10
  %.not10 = icmp eq i32 %30, 347
  br i1 %.not10, label %31, label %41

31:                                               ; preds = %21
  %32 = tail call noundef ptr @_ZNK4Node14find_long_typeEv(ptr noundef nonnull align 8 dereferenceable(52) %27) #10
  %.not.i = icmp eq ptr %32, null
  br i1 %.not.i, label %39, label %33

33:                                               ; preds = %31
  %34 = getelementptr inbounds i8, ptr %32, i64 24
  %35 = load i64, ptr %34, align 8
  %36 = getelementptr inbounds i8, ptr %32, i64 32
  %37 = load i64, ptr %36, align 8
  %38 = icmp eq i64 %35, %37
  br i1 %38, label %_ZNK4Node13find_long_conEi.exit, label %39

39:                                               ; preds = %33, %31
  br label %_ZNK4Node13find_long_conEi.exit

_ZNK4Node13find_long_conEi.exit:                  ; preds = %33, %39
  %40 = phi i64 [ -1, %39 ], [ %35, %33 ]
  %.not11 = icmp eq i64 %40, 40
  br label %41

41:                                               ; preds = %_ZNK4Node13find_long_conEi.exit, %21, %12, %8, %1
  %.0 = phi i1 [ false, %1 ], [ false, %8 ], [ false, %12 ], [ false, %21 ], [ %.not11, %_ZNK4Node13find_long_conEi.exit ]
  ret i1 %.0
}